target datalayout = "e-m:e-p270:32:32-p271:32:32-p272:64:64-i64:64-i128:128-f80:128-n8:16:32:64-S128"
target triple = "x86_64-pc-linux-gnu"

%struct.eio_obj = type { i32, ptr, ptr, i8 }
%struct.server_io_info = type { ptr, i32, i8, %struct.io_hdr_t, ptr, i32, i8, i32, i32, ptr, ptr, i32, i8 }
%struct.io_hdr_t = type { i32, i16, i16, i32 }
%struct.client_io_t = type { i32, i32, i8, i32, i32, i32, ptr, i8, %union.pthread_cond_t, %union.pthread_mutex_t, i32, ptr, ptr, ptr, %union.pthread_mutex_t, ptr, i32, ptr, ptr, ptr, ptr, ptr, ptr, i32, i32, ptr }
%union.pthread_cond_t = type { %struct.__pthread_cond_s }
%struct.__pthread_cond_s = type { %union.__atomic_wide_counter, %union.__atomic_wide_counter, [2 x i32], [2 x i32], i32, i32, [2 x i32] }
%union.__atomic_wide_counter = type { i64 }
%union.pthread_mutex_t = type { %struct.__pthread_mutex_s }
%struct.__pthread_mutex_s = type { i32, i32, i32, i32, i32, i16, i16, %struct.__pthread_internal_list }
%struct.__pthread_internal_list = type { ptr, ptr }
%struct.io_buf = type { i32, i32, ptr, %struct.io_hdr_t }

@.str = private unnamed_addr constant [10 x i8] c"step_io.c\00", align 1
@.str.16 = private unnamed_addr constant [18 x i8] c"  false, shutdown\00", align 1
@.str.27 = private unnamed_addr constant [24 x i8] c"Called _server_readable\00", align 1
@.str.28 = private unnamed_addr constant [30 x i8] c"  false, free_io_buf is empty\00", align 1
@.str.29 = private unnamed_addr constant [13 x i8] c"  false, eof\00", align 1
@.str.30 = private unnamed_addr constant [24 x i8] c"remote_stdout_objs = %d\00", align 1
@.str.31 = private unnamed_addr constant [24 x i8] c"remote_stderr_objs = %d\00", align 1
@.str.32 = private unnamed_addr constant [8 x i8] c"  false\00", align 1
@__func__._alloc_io_buf = private unnamed_addr constant [14 x i8] c"_alloc_io_buf\00", align 1

; Function Attrs: nounwind uwtable
define internal ptr @_alloc_io_buf() #0 {
  %1 = alloca ptr, align 8
  call void @llvm.lifetime.start.p0(i64 8, ptr %1) #9
  %2 = call ptr @slurm_xcalloc(i64 noundef 1, i64 noundef 32, i1 noundef zeroext true, i1 noundef zeroext false, ptr noundef @.str, i32 noundef 967, ptr noundef @__func__._alloc_io_buf)
  store ptr %2, ptr %1, align 8
  %3 = load ptr, ptr %1, align 8
  %4 = getelementptr inbounds nuw %struct.io_buf, ptr %3, i32 0, i32 0
  store i32 0, ptr %4, align 8
  %5 = load ptr, ptr %1, align 8
  %6 = getelementptr inbounds nuw %struct.io_buf, ptr %5, i32 0, i32 1
  store i32 0, ptr %6, align 4
  %7 = call ptr @slurm_xcalloc(i64 noundef 1, i64 noundef 1035, i1 noundef zeroext true, i1 noundef zeroext false, ptr noundef @.str, i32 noundef 973, ptr noundef @__func__._alloc_io_buf)
  %8 = load ptr, ptr %1, align 8
  %9 = getelementptr inbounds nuw %struct.io_buf, ptr %8, i32 0, i32 2
  store ptr %7, ptr %9, align 8
  %10 = load ptr, ptr %1, align 8
  call void @llvm.lifetime.end.p0(i64 8, ptr %1) #9
  ret ptr %10
}

; Function Attrs: nounwind uwtable
define internal zeroext i1 @_outgoing_buf_free(ptr noundef %0) #0 {
  %2 = alloca i1, align 1
  %3 = alloca ptr, align 8
  %4 = alloca ptr, align 8
  %5 = alloca i32, align 4
  store ptr %0, ptr %3, align 8
  call void @llvm.lifetime.start.p0(i64 8, ptr %4) #9
  %6 = load ptr, ptr %3, align 8
  %7 = getelementptr inbounds nuw %struct.client_io_t, ptr %6, i32 0, i32 22
  %8 = load ptr, ptr %7, align 8
  %9 = call i32 @list_count(ptr noundef %8)
  %10 = icmp sgt i32 %9, 0
  br i1 %10, label %11, label %12

11:                                               ; preds = %1
  store i1 true, ptr %2, align 1
  store i32 1, ptr %5, align 4
  br label %29

12:                                               ; preds = %1
  %13 = load ptr, ptr %3, align 8
  %14 = getelementptr inbounds nuw %struct.client_io_t, ptr %13, i32 0, i32 24
  %15 = load i32, ptr %14, align 4
  %16 = icmp slt i32 %15, 1024
  br i1 %16, label %17, label %27

17:                                               ; preds = %12
  %18 = call ptr @_alloc_io_buf()
  store ptr %18, ptr %4, align 8
  %19 = load ptr, ptr %3, align 8
  %20 = getelementptr inbounds nuw %struct.client_io_t, ptr %19, i32 0, i32 22
  %21 = load ptr, ptr %20, align 8
  %22 = load ptr, ptr %4, align 8
  call void @list_enqueue(ptr noundef %21, ptr noundef %22)
  %23 = load ptr, ptr %3, align 8
  %24 = getelementptr inbounds nuw %struct.client_io_t, ptr %23, i32 0, i32 24
  %25 = load i32, ptr %24, align 4
  %26 = add nsw i32 %25, 1
  store i32 %26, ptr %24, align 4
  store i1 true, ptr %2, align 1
  store i32 1, ptr %5, align 4
  br label %29

27:                                               ; preds = %12
  br label %28

28:                                               ; preds = %27
  store i1 false, ptr %2, align 1
  store i32 1, ptr %5, align 4
  br label %29

29:                                               ; preds = %28, %17, %11
  call void @llvm.lifetime.end.p0(i64 8, ptr %4) #9
  %30 = load i1, ptr %2, align 1
  ret i1 %30
}

; Function Attrs: nounwind uwtable
define internal zeroext i1 @_server_readable(ptr noundef %0) #0 {
  %2 = alloca i1, align 1
  %3 = alloca ptr, align 8
  %4 = alloca ptr, align 8
  %5 = alloca i32, align 4
  store ptr %0, ptr %3, align 8
  call void @llvm.lifetime.start.p0(i64 8, ptr %4) #9
  %6 = load ptr, ptr %3, align 8
  %7 = getelementptr inbounds nuw %struct.eio_obj, ptr %6, i32 0, i32 1
  %8 = load ptr, ptr %7, align 8
  store ptr %8, ptr %4, align 8
  br label %9

9:                                                ; preds = %1
  br label %10

10:                                               ; preds = %9
  %11 = call i32 @get_log_level()
  %12 = icmp sge i32 %11, 8
  br i1 %12, label %13, label %14

13:                                               ; preds = %10
  call void (i32, ptr, ...) @log_var(i32 noundef 8, ptr noundef @.str.27)
  br label %14

14:                                               ; preds = %13, %10
  br label %15

15:                                               ; preds = %14
  br label %16

16:                                               ; preds = %15
  br label %17

17:                                               ; preds = %16
  br label %18

18:                                               ; preds = %17
  %19 = load ptr, ptr %4, align 8
  %20 = getelementptr inbounds nuw %struct.server_io_info, ptr %19, i32 0, i32 0
  %21 = load ptr, ptr %20, align 8
  %22 = call zeroext i1 @_outgoing_buf_free(ptr noundef %21)
  br i1 %22, label %34, label %23

23:                                               ; preds = %18
  br label %24

24:                                               ; preds = %23
  br label %25

25:                                               ; preds = %24
  %26 = call i32 @get_log_level()
  %27 = icmp sge i32 %26, 8
  br i1 %27, label %28, label %29

28:                                               ; preds = %25
  call void (i32, ptr, ...) @log_var(i32 noundef 8, ptr noundef @.str.28)
  br label %29

29:                                               ; preds = %28, %25
  br label %30

30:                                               ; preds = %29
  br label %31

31:                                               ; preds = %30
  br label %32

32:                                               ; preds = %31
  br label %33

33:                                               ; preds = %32
  store i1 false, ptr %2, align 1
  store i32 1, ptr %5, align 4
  br label %141

34:                                               ; preds = %18
  %35 = load ptr, ptr %4, align 8
  %36 = getelementptr inbounds nuw %struct.server_io_info, ptr %35, i32 0, i32 6
  %37 = load i8, ptr %36, align 4, !range !8, !noundef !9
  %38 = trunc i8 %37 to i1
  br i1 %38, label %39, label %50

39:                                               ; preds = %34
  br label %40

40:                                               ; preds = %39
  br label %41

41:                                               ; preds = %40
  %42 = call i32 @get_log_level()
  %43 = icmp sge i32 %42, 8
  br i1 %43, label %44, label %45

44:                                               ; preds = %41
  call void (i32, ptr, ...) @log_var(i32 noundef 8, ptr noundef @.str.29)
  br label %45

45:                                               ; preds = %44, %41
  br label %46

46:                                               ; preds = %45
  br label %47

47:                                               ; preds = %46
  br label %48

48:                                               ; preds = %47
  br label %49

49:                                               ; preds = %48
  store i1 false, ptr %2, align 1
  store i32 1, ptr %5, align 4
  br label %141

50:                                               ; preds = %34
  %51 = load ptr, ptr %4, align 8
  %52 = getelementptr inbounds nuw %struct.server_io_info, ptr %51, i32 0, i32 7
  %53 = load i32, ptr %52, align 8
  %54 = icmp sgt i32 %53, 0
  br i1 %54, label %65, label %55

55:                                               ; preds = %50
  %56 = load ptr, ptr %4, align 8
  %57 = getelementptr inbounds nuw %struct.server_io_info, ptr %56, i32 0, i32 8
  %58 = load i32, ptr %57, align 4
  %59 = icmp sgt i32 %58, 0
  br i1 %59, label %65, label %60

60:                                               ; preds = %55
  %61 = load ptr, ptr %4, align 8
  %62 = getelementptr inbounds nuw %struct.server_io_info, ptr %61, i32 0, i32 2
  %63 = load i8, ptr %62, align 4, !range !8, !noundef !9
  %64 = trunc i8 %63 to i1
  br i1 %64, label %65, label %92

65:                                               ; preds = %60, %55, %50
  br label %66

66:                                               ; preds = %65
  br label %67

67:                                               ; preds = %66
  %68 = call i32 @get_log_level()
  %69 = icmp sge i32 %68, 8
  br i1 %69, label %70, label %74

70:                                               ; preds = %67
  %71 = load ptr, ptr %4, align 8
  %72 = getelementptr inbounds nuw %struct.server_io_info, ptr %71, i32 0, i32 7
  %73 = load i32, ptr %72, align 8
  call void (i32, ptr, ...) @log_var(i32 noundef 8, ptr noundef @.str.30, i32 noundef %73)
  br label %74

74:                                               ; preds = %70, %67
  br label %75

75:                                               ; preds = %74
  br label %76

76:                                               ; preds = %75
  br label %77

77:                                               ; preds = %76
  br label %78

78:                                               ; preds = %77
  br label %79

79:                                               ; preds = %78
  br label %80

80:                                               ; preds = %79
  %81 = call i32 @get_log_level()
  %82 = icmp sge i32 %81, 8
  br i1 %82, label %83, label %87

83:                                               ; preds = %80
  %84 = load ptr, ptr %4, align 8
  %85 = getelementptr inbounds nuw %struct.server_io_info, ptr %84, i32 0, i32 8
  %86 = load i32, ptr %85, align 4
  call void (i32, ptr, ...) @log_var(i32 noundef 8, ptr noundef @.str.31, i32 noundef %86)
  br label %87

87:                                               ; preds = %83, %80
  br label %88

88:                                               ; preds = %87
  br label %89

89:                                               ; preds = %88
  br label %90

90:                                               ; preds = %89
  br label %91

91:                                               ; preds = %90
  store i1 true, ptr %2, align 1
  store i32 1, ptr %5, align 4
  br label %141

92:                                               ; preds = %60
  %93 = load ptr, ptr %3, align 8
  %94 = getelementptr inbounds nuw %struct.eio_obj, ptr %93, i32 0, i32 3
  %95 = load i8, ptr %94, align 8, !range !8, !noundef !9
  %96 = trunc i8 %95 to i1
  br i1 %96, label %97, label %130

97:                                               ; preds = %92
  %98 = load ptr, ptr %3, align 8
  %99 = getelementptr inbounds nuw %struct.eio_obj, ptr %98, i32 0, i32 0
  %100 = load i32, ptr %99, align 8
  %101 = icmp ne i32 %100, -1
  br i1 %101, label %102, label %119

102:                                              ; preds = %97
  %103 = load ptr, ptr %3, align 8
  %104 = getelementptr inbounds nuw %struct.eio_obj, ptr %103, i32 0, i32 0
  %105 = load i32, ptr %104, align 8
  %106 = icmp sgt i32 %105, 2
  br i1 %106, label %107, label %112

107:                                              ; preds = %102
  %108 = load ptr, ptr %3, align 8
  %109 = getelementptr inbounds nuw %struct.eio_obj, ptr %108, i32 0, i32 0
  %110 = load i32, ptr %109, align 8
  %111 = call i32 @close(i32 noundef %110)
  br label %112

112:                                              ; preds = %107, %102
  %113 = load ptr, ptr %3, align 8
  %114 = getelementptr inbounds nuw %struct.eio_obj, ptr %113, i32 0, i32 0
  store i32 -1, ptr %114, align 8
  %115 = load ptr, ptr %4, align 8
  %116 = getelementptr inbounds nuw %struct.server_io_info, ptr %115, i32 0, i32 6
  store i8 1, ptr %116, align 4
  %117 = load ptr, ptr %4, align 8
  %118 = getelementptr inbounds nuw %struct.server_io_info, ptr %117, i32 0, i32 12
  store i8 1, ptr %118, align 4
  br label %119

119:                                              ; preds = %112, %97
  br label %120

120:                                              ; preds = %119
  br label %121

121:                                              ; preds = %120
  %122 = call i32 @get_log_level()
  %123 = icmp sge i32 %122, 7
  br i1 %123, label %124, label %125

124:                                              ; preds = %121
  call void (i32, ptr, ...) @log_var(i32 noundef 7, ptr noundef @.str.16)
  br label %125

125:                                              ; preds = %124, %121
  br label %126

126:                                              ; preds = %125
  br label %127

127:                                              ; preds = %126
  br label %128

128:                                              ; preds = %127
  br label %129

129:                                              ; preds = %128
  store i1 false, ptr %2, align 1
  store i32 1, ptr %5, align 4
  br label %141

130:                                              ; preds = %92
  br label %131

131:                                              ; preds = %130
  br label %132

132:                                              ; preds = %131
  %133 = call i32 @get_log_level()
  %134 = icmp sge i32 %133, 7
  br i1 %134, label %135, label %136

135:                                              ; preds = %132
  call void (i32, ptr, ...) @log_var(i32 noundef 7, ptr noundef @.str.32)
  br label %136

136:                                              ; preds = %135, %132
  br label %137

137:                                              ; preds = %136
  br label %138

138:                                              ; preds = %137
  br label %139

139:                                              ; preds = %138
  br label %140

140:                                              ; preds = %139
  store i1 false, ptr %2, align 1
  store i32 1, ptr %5, align 4
  br label %141

141:                                              ; preds = %140, %129, %91, %49, %33
  call void @llvm.lifetime.end.p0(i64 8, ptr %4) #9
  %142 = load i1, ptr %2, align 1
  ret i1 %142
}