; Function Attrs: nounwind uwtable
define internal noundef zeroext i1 @_server_readable(ptr noundef captures(none) %0) #0 {
  %2 = getelementptr inbounds nuw i8, ptr %0, i64 8
  %3 = load ptr, ptr %2, align 8
  %4 = tail call i32 @get_log_level() #10
  %5 = icmp sgt i32 %4, 7
  br i1 %5, label %6, label %7

6:                                                ; preds = %1
  tail call void (i32, ptr, ...) @log_var(i32 noundef 8, ptr noundef nonnull @.str.27) #10
  br label %7

7:                                                ; preds = %6, %1
  %8 = load ptr, ptr %3, align 8
  %9 = getelementptr inbounds nuw i8, ptr %8, i64 256
  %10 = load ptr, ptr %9, align 8
  %11 = tail call i32 @list_count(ptr noundef %10) #10
  %12 = icmp sgt i32 %11, 0
  br i1 %12, label %28, label %13

13:                                               ; preds = %7
  %14 = getelementptr inbounds nuw i8, ptr %8, i64 268
  %15 = load i32, ptr %14, align 4
  %16 = icmp slt i32 %15, 1024
  br i1 %16, label %17, label %_outgoing_buf_free.exit

17:                                               ; preds = %13
  %18 = tail call ptr @slurm_xcalloc(i64 noundef 1, i64 noundef 32, i1 noundef zeroext true, i1 noundef zeroext false, ptr noundef nonnull @.str, i32 noundef 967, ptr noundef nonnull @__func__._alloc_io_buf) #10
  store i32 0, ptr %18, align 8
  %19 = getelementptr inbounds nuw i8, ptr %18, i64 4
  store i32 0, ptr %19, align 4
  %20 = tail call ptr @slurm_xcalloc(i64 noundef 1, i64 noundef 1035, i1 noundef zeroext true, i1 noundef zeroext false, ptr noundef nonnull @.str, i32 noundef 973, ptr noundef nonnull @__func__._alloc_io_buf) #10
  %21 = getelementptr inbounds nuw i8, ptr %18, i64 8
  store ptr %20, ptr %21, align 8
  %22 = load ptr, ptr %9, align 8
  tail call void @list_enqueue(ptr noundef %22, ptr noundef nonnull %18) #10
  %23 = load i32, ptr %14, align 4
  %24 = add nsw i32 %23, 1
  store i32 %24, ptr %14, align 4
  br label %28

_outgoing_buf_free.exit:                          ; preds = %13
  %25 = tail call i32 @get_log_level() #10
  %26 = icmp sgt i32 %25, 7
  br i1 %26, label %27, label %79

27:                                               ; preds = %_outgoing_buf_free.exit
  tail call void (i32, ptr, ...) @log_var(i32 noundef 8, ptr noundef nonnull @.str.28) #10
  br label %79

28:                                               ; preds = %17, %7
  %29 = getelementptr inbounds nuw i8, ptr %3, i64 44
  %30 = load i8, ptr %29, align 4, !range !8, !noundef !9
  %31 = trunc nuw i8 %30 to i1
  br i1 %31, label %32, label %36

32:                                               ; preds = %28
  %33 = tail call i32 @get_log_level() #10
  %34 = icmp sgt i32 %33, 7
  br i1 %34, label %35, label %79

35:                                               ; preds = %32
  tail call void (i32, ptr, ...) @log_var(i32 noundef 8, ptr noundef nonnull @.str.29) #10
  br label %79

36:                                               ; preds = %28
  %37 = getelementptr inbounds nuw i8, ptr %3, i64 48
  %38 = load i32, ptr %37, align 8
  %39 = icmp sgt i32 %38, 0
  br i1 %39, label %48, label %40

40:                                               ; preds = %36
  %41 = getelementptr inbounds nuw i8, ptr %3, i64 52
  %42 = load i32, ptr %41, align 4
  %43 = icmp sgt i32 %42, 0
  br i1 %43, label %48, label %44

44:                                               ; preds = %40
  %45 = getelementptr inbounds nuw i8, ptr %3, i64 12
  %46 = load i8, ptr %45, align 4, !range !8, !noundef !9
  %47 = trunc nuw i8 %46 to i1
  br i1 %47, label %48, label %59

48:                                               ; preds = %44, %40, %36
  %49 = tail call i32 @get_log_level() #10
  %50 = icmp sgt i32 %49, 7
  br i1 %50, label %51, label %53

51:                                               ; preds = %48
  %52 = load i32, ptr %37, align 8
  tail call void (i32, ptr, ...) @log_var(i32 noundef 8, ptr noundef nonnull @.str.30, i32 noundef %52) #10
  br label %53

53:                                               ; preds = %51, %48
  %54 = tail call i32 @get_log_level() #10
  %55 = icmp sgt i32 %54, 7
  br i1 %55, label %56, label %79

56:                                               ; preds = %53
  %57 = getelementptr inbounds nuw i8, ptr %3, i64 52
  %58 = load i32, ptr %57, align 4
  tail call void (i32, ptr, ...) @log_var(i32 noundef 8, ptr noundef nonnull @.str.31, i32 noundef %58) #10
  br label %79

59:                                               ; preds = %44
  %60 = getelementptr inbounds nuw i8, ptr %0, i64 24
  %61 = load i8, ptr %60, align 8, !range !8, !noundef !9
  %62 = trunc nuw i8 %61 to i1
  br i1 %62, label %63, label %75

63:                                               ; preds = %59
  %64 = load i32, ptr %0, align 8
  %.not = icmp eq i32 %64, -1
  br i1 %.not, label %71, label %65

65:                                               ; preds = %63
  %66 = icmp sgt i32 %64, 2
  br i1 %66, label %67, label %69

67:                                               ; preds = %65
  %68 = tail call i32 @close(i32 noundef %64) #10
  br label %69

69:                                               ; preds = %67, %65
  store i32 -1, ptr %0, align 8
  store i8 1, ptr %29, align 4
  %70 = getelementptr inbounds nuw i8, ptr %3, i64 76
  store i8 1, ptr %70, align 4
  br label %71

71:                                               ; preds = %69, %63
  %72 = tail call i32 @get_log_level() #10
  %73 = icmp sgt i32 %72, 6
  br i1 %73, label %74, label %79

74:                                               ; preds = %71
  tail call void (i32, ptr, ...) @log_var(i32 noundef 7, ptr noundef nonnull @.str.16) #10
  br label %79

75:                                               ; preds = %59
  %76 = tail call i32 @get_log_level() #10
  %77 = icmp sgt i32 %76, 6
  br i1 %77, label %78, label %79

78:                                               ; preds = %75
  tail call void (i32, ptr, ...) @log_var(i32 noundef 7, ptr noundef nonnull @.str.32) #10
  br label %79

79:                                               ; preds = %75, %78, %71, %74, %53, %56, %32, %35, %_outgoing_buf_free.exit, %27
  %.0 = phi i1 [ false, %27 ], [ false, %_outgoing_buf_free.exit ], [ false, %35 ], [ false, %32 ], [ true, %56 ], [ true, %53 ], [ false, %74 ], [ false, %71 ], [ false, %78 ], [ false, %75 ]
  ret i1 %.0
}